target datalayout = "e-m:e-p270:32:32-p271:32:32-p272:64:64-i64:64-i128:128-f80:128-n8:16:32:64-S128"
target triple = "x86_64-pc-linux-gnu"

%struct.lzmastate = type { ptr, i32, i32 }

; Function Attrs: nounwind uwtable
define internal i32 @lzma_486248(ptr noundef %0, ptr noundef %1, ptr noundef %2, i32 noundef %3) #0 {
  %5 = alloca i32, align 4
  %6 = alloca ptr, align 8
  %7 = alloca ptr, align 8
  %8 = alloca ptr, align 8
  %9 = alloca i32, align 4
  %10 = alloca i32, align 4
  %11 = alloca i32, align 4
  %12 = alloca i32, align 4
  %13 = alloca i32, align 4
  %14 = alloca i32, align 4
  store ptr %0, ptr %6, align 8
  store ptr %1, ptr %7, align 8
  store ptr %2, ptr %8, align 8
  store i32 %3, ptr %9, align 4
  %15 = load i32, ptr %9, align 4
  %16 = zext i32 %15 to i64
  %17 = icmp ugt i64 %16, 0
  br i1 %17, label %18, label %106

18:                                               ; preds = %4
  %19 = load i32, ptr %9, align 4
  %20 = zext i32 %19 to i64
  %21 = icmp ule i64 4, %20
  br i1 %21, label %22, label %106

22:                                               ; preds = %18
  %23 = load ptr, ptr %7, align 8
  %24 = load ptr, ptr %23, align 8
  %25 = ptrtoint ptr %24 to i64
  %26 = load ptr, ptr %8, align 8
  %27 = ptrtoint ptr %26 to i64
  %28 = icmp uge i64 %25, %27
  br i1 %28, label %29, label %106

29:                                               ; preds = %22
  %30 = load ptr, ptr %7, align 8
  %31 = load ptr, ptr %30, align 8
  %32 = ptrtoint ptr %31 to i64
  %33 = add i64 %32, 4
  %34 = load ptr, ptr %8, align 8
  %35 = ptrtoint ptr %34 to i64
  %36 = load i32, ptr %9, align 4
  %37 = zext i32 %36 to i64
  %38 = add i64 %35, %37
  %39 = icmp ule i64 %33, %38
  br i1 %39, label %40, label %106

40:                                               ; preds = %29
  %41 = load ptr, ptr %7, align 8
  %42 = load ptr, ptr %41, align 8
  %43 = ptrtoint ptr %42 to i64
  %44 = add i64 %43, 4
  %45 = load ptr, ptr %8, align 8
  %46 = ptrtoint ptr %45 to i64
  %47 = icmp ugt i64 %44, %46
  br i1 %47, label %48, label %106

48:                                               ; preds = %40
  %49 = load ptr, ptr %7, align 8
  %50 = load ptr, ptr %49, align 8
  %51 = ptrtoint ptr %50 to i64
  %52 = load ptr, ptr %8, align 8
  %53 = ptrtoint ptr %52 to i64
  %54 = load i32, ptr %9, align 4
  %55 = zext i32 %54 to i64
  %56 = add i64 %53, %55
  %57 = icmp ult i64 %51, %56
  br i1 %57, label %58, label %106

58:                                               ; preds = %48
  %59 = load i32, ptr %9, align 4
  %60 = zext i32 %59 to i64
  %61 = icmp ugt i64 %60, 0
  br i1 %61, label %62, label %106

62:                                               ; preds = %58
  %63 = load i32, ptr %9, align 4
  %64 = zext i32 %63 to i64
  %65 = icmp ule i64 1, %64
  br i1 %65, label %66, label %106

66:                                               ; preds = %62
  %67 = load ptr, ptr %6, align 8
  %68 = getelementptr inbounds %struct.lzmastate, ptr %67, i32 0, i32 0
  %69 = load ptr, ptr %68, align 8
  %70 = ptrtoint ptr %69 to i64
  %71 = load ptr, ptr %8, align 8
  %72 = ptrtoint ptr %71 to i64
  %73 = icmp uge i64 %70, %72
  br i1 %73, label %74, label %106

74:                                               ; preds = %66
  %75 = load ptr, ptr %6, align 8
  %76 = getelementptr inbounds %struct.lzmastate, ptr %75, i32 0, i32 0
  %77 = load ptr, ptr %76, align 8
  %78 = ptrtoint ptr %77 to i64
  %79 = add i64 %78, 1
  %80 = load ptr, ptr %8, align 8
  %81 = ptrtoint ptr %80 to i64
  %82 = load i32, ptr %9, align 4
  %83 = zext i32 %82 to i64
  %84 = add i64 %81, %83
  %85 = icmp ule i64 %79, %84
  br i1 %85, label %86, label %106

86:                                               ; preds = %74
  %87 = load ptr, ptr %6, align 8
  %88 = getelementptr inbounds %struct.lzmastate, ptr %87, i32 0, i32 0
  %89 = load ptr, ptr %88, align 8
  %90 = ptrtoint ptr %89 to i64
  %91 = add i64 %90, 1
  %92 = load ptr, ptr %8, align 8
  %93 = ptrtoint ptr %92 to i64
  %94 = icmp ugt i64 %91, %93
  br i1 %94, label %95, label %106

95:                                               ; preds = %86
  %96 = load ptr, ptr %6, align 8
  %97 = getelementptr inbounds %struct.lzmastate, ptr %96, i32 0, i32 0
  %98 = load ptr, ptr %97, align 8
  %99 = ptrtoint ptr %98 to i64
  %100 = load ptr, ptr %8, align 8
  %101 = ptrtoint ptr %100 to i64
  %102 = load i32, ptr %9, align 4
  %103 = zext i32 %102 to i64
  %104 = add i64 %101, %103
  %105 = icmp ult i64 %99, %104
  br i1 %105, label %107, label %106

106:                                              ; preds = %95, %86, %74, %66, %62, %58, %48, %40, %29, %22, %18, %4
  store i32 -1, ptr %5, align 4
  br label %220

107:                                              ; preds = %95
  %108 = load ptr, ptr %6, align 8
  %109 = getelementptr inbounds %struct.lzmastate, ptr %108, i32 0, i32 1
  %110 = load i32, ptr %109, align 8
  store i32 %110, ptr %10, align 4
  %111 = load i32, ptr %10, align 4
  %112 = lshr i32 %111, 11
  store i32 %112, ptr %12, align 4
  %113 = load ptr, ptr %7, align 8
  %114 = load ptr, ptr %113, align 8
  %115 = load i32, ptr %114, align 1
  store i32 %115, ptr %13, align 4
  %116 = load i32, ptr %13, align 4
  %117 = and i32 %116, 65535
  store i32 %117, ptr %14, align 4
  %118 = load i32, ptr %14, align 4
  %119 = load i32, ptr %12, align 4
  %120 = mul i32 %119, %118
  store i32 %120, ptr %12, align 4
  %121 = load ptr, ptr %6, align 8
  %122 = getelementptr inbounds %struct.lzmastate, ptr %121, i32 0, i32 2
  %123 = load i32, ptr %122, align 4
  store i32 %123, ptr %11, align 4
  %124 = load i32, ptr %11, align 4
  %125 = load i32, ptr %12, align 4
  %126 = icmp ult i32 %124, %125
  br i1 %126, label %127, label %148

127:                                              ; preds = %107
  %128 = load i32, ptr %12, align 4
  %129 = load ptr, ptr %6, align 8
  %130 = getelementptr inbounds %struct.lzmastate, ptr %129, i32 0, i32 1
  store i32 %128, ptr %130, align 8
  %131 = load i32, ptr %14, align 4
  store i32 %131, ptr %10, align 4
  %132 = load i32, ptr %14, align 4
  %133 = sub i32 2048, %132
  %134 = ashr i32 %133, 5
  %135 = load i32, ptr %12, align 4
  %136 = and i32 %135, -65536
  %137 = load i32, ptr %14, align 4
  %138 = or i32 %136, %137
  %139 = add i32 %134, %138
  store i32 %139, ptr %11, align 4
  %140 = load i32, ptr %13, align 4
  %141 = and i32 %140, -65536
  %142 = load i32, ptr %11, align 4
  %143 = and i32 %142, 65535
  %144 = or i32 %141, %143
  store i32 %144, ptr %13, align 4
  %145 = load i32, ptr %13, align 4
  %146 = load ptr, ptr %7, align 8
  %147 = load ptr, ptr %146, align 8
  store i32 %145, ptr %147, align 1
  store i32 0, ptr %14, align 4
  br label %181

148:                                              ; preds = %107
  %149 = load i32, ptr %12, align 4
  %150 = load i32, ptr %10, align 4
  %151 = sub i32 %150, %149
  store i32 %151, ptr %10, align 4
  %152 = load i32, ptr %12, align 4
  %153 = load i32, ptr %11, align 4
  %154 = sub i32 %153, %152
  store i32 %154, ptr %11, align 4
  %155 = load i32, ptr %10, align 4
  %156 = load ptr, ptr %6, align 8
  %157 = getelementptr inbounds %struct.lzmastate, ptr %156, i32 0, i32 1
  store i32 %155, ptr %157, align 8
  %158 = load i32, ptr %11, align 4
  %159 = load ptr, ptr %6, align 8
  %160 = getelementptr inbounds %struct.lzmastate, ptr %159, i32 0, i32 2
  store i32 %158, ptr %160, align 4
  %161 = load i32, ptr %12, align 4
  %162 = and i32 %161, -65536
  %163 = load i32, ptr %14, align 4
  %164 = or i32 %162, %163
  store i32 %164, ptr %12, align 4
  %165 = load i32, ptr %10, align 4
  %166 = and i32 %165, -65536
  %167 = load i32, ptr %14, align 4
  %168 = lshr i32 %167, 5
  %169 = or i32 %166, %168
  store i32 %169, ptr %10, align 4
  %170 = load i32, ptr %10, align 4
  %171 = load i32, ptr %12, align 4
  %172 = sub i32 %171, %170
  store i32 %172, ptr %12, align 4
  %173 = load i32, ptr %13, align 4
  %174 = and i32 %173, -65536
  %175 = load i32, ptr %12, align 4
  %176 = and i32 %175, 65535
  %177 = or i32 %174, %176
  store i32 %177, ptr %13, align 4
  %178 = load i32, ptr %13, align 4
  %179 = load ptr, ptr %7, align 8
  %180 = load ptr, ptr %179, align 8
  store i32 %178, ptr %180, align 1
  store i32 1, ptr %14, align 4
  br label %181

181:                                              ; preds = %148, %127
  %182 = load ptr, ptr %6, align 8
  %183 = getelementptr inbounds %struct.lzmastate, ptr %182, i32 0, i32 1
  %184 = load i32, ptr %183, align 8
  store i32 %184, ptr %12, align 4
  %185 = load i32, ptr %12, align 4
  %186 = icmp ult i32 %185, 16777216
  br i1 %186, label %187, label %218

187:                                              ; preds = %181
  %188 = load ptr, ptr %6, align 8
  %189 = getelementptr inbounds %struct.lzmastate, ptr %188, i32 0, i32 0
  %190 = load ptr, ptr %189, align 8
  %191 = load ptr, ptr %7, align 8
  store ptr %190, ptr %191, align 8
  %192 = load ptr, ptr %6, align 8
  %193 = getelementptr inbounds %struct.lzmastate, ptr %192, i32 0, i32 0
  %194 = load ptr, ptr %193, align 8
  %195 = load i8, ptr %194, align 1
  %196 = zext i8 %195 to i32
  store i32 %196, ptr %11, align 4
  %197 = load ptr, ptr %6, align 8
  %198 = getelementptr inbounds %struct.lzmastate, ptr %197, i32 0, i32 2
  %199 = load i32, ptr %198, align 4
  %200 = shl i32 %199, 8
  %201 = load i32, ptr %11, align 4
  %202 = or i32 %200, %201
  store i32 %202, ptr %10, align 4
  %203 = load ptr, ptr %7, align 8
  %204 = load ptr, ptr %203, align 8
  %205 = getelementptr inbounds i8, ptr %204, i32 1
  store ptr %205, ptr %203, align 8
  %206 = load i32, ptr %12, align 4
  %207 = shl i32 %206, 8
  store i32 %207, ptr %12, align 4
  %208 = load i32, ptr %10, align 4
  %209 = load ptr, ptr %6, align 8
  %210 = getelementptr inbounds %struct.lzmastate, ptr %209, i32 0, i32 2
  store i32 %208, ptr %210, align 4
  %211 = load i32, ptr %12, align 4
  %212 = load ptr, ptr %6, align 8
  %213 = getelementptr inbounds %struct.lzmastate, ptr %212, i32 0, i32 1
  store i32 %211, ptr %213, align 8
  %214 = load ptr, ptr %7, align 8
  %215 = load ptr, ptr %214, align 8
  %216 = load ptr, ptr %6, align 8
  %217 = getelementptr inbounds %struct.lzmastate, ptr %216, i32 0, i32 0
  store ptr %215, ptr %217, align 8
  br label %218

218:                                              ; preds = %187, %181
  %219 = load i32, ptr %14, align 4
  store i32 %219, ptr %5, align 4
  br label %220

220:                                              ; preds = %218, %106
  %221 = load i32, ptr %5, align 4
  ret i32 %221
}