; Function Attrs: mustprogress nofree norecurse nosync nounwind willreturn memory(readwrite, inaccessiblemem: none) uwtable
define internal fastcc noundef i32 @lzma_486248(ptr nocapture noundef %0, ptr nocapture noundef %1, ptr noundef %2, i32 noundef %3) unnamed_addr #2 {
  %5 = zext i32 %3 to i64
  %6 = icmp ugt i32 %3, 3
  br i1 %6, label %7, label %59

7:                                                ; preds = %4
  %8 = load ptr, ptr %1, align 8
  %9 = ptrtoint ptr %2 to i64
  %.not = icmp ult ptr %8, %2
  br i1 %.not, label %59, label %10

10:                                               ; preds = %7
  %11 = ptrtoint ptr %8 to i64
  %12 = add i64 %11, 4
  %13 = add i64 %5, %9
  %.not96 = icmp ule i64 %12, %13
  %14 = icmp ugt i64 %12, %9
  %or.cond = and i1 %.not96, %14
  %15 = icmp ugt i64 %13, %11
  %or.cond99 = and i1 %15, %or.cond
  br i1 %or.cond99, label %16, label %59

16:                                               ; preds = %10
  %17 = load ptr, ptr %0, align 8
  %.not97 = icmp ult ptr %17, %2
  br i1 %.not97, label %59, label %18

18:                                               ; preds = %16
  %19 = ptrtoint ptr %17 to i64
  %20 = add i64 %19, 1
  %.not98 = icmp ule i64 %20, %13
  %21 = icmp ugt i64 %20, %9
  %or.cond100 = and i1 %.not98, %21
  %22 = icmp ugt i64 %13, %19
  %or.cond101 = and i1 %22, %or.cond100
  br i1 %or.cond101, label %23, label %59

23:                                               ; preds = %18
  %24 = getelementptr inbounds i8, ptr %0, i64 8
  %25 = load i32, ptr %24, align 8
  %26 = lshr i32 %25, 11
  %27 = load i32, ptr %8, align 1
  %28 = and i32 %27, 65535
  %29 = mul i32 %28, %26
  %30 = getelementptr inbounds i8, ptr %0, i64 12
  %31 = load i32, ptr %30, align 4
  %32 = icmp ult i32 %31, %29
  br i1 %32, label %33, label %37

33:                                               ; preds = %23
  store i32 %29, ptr %24, align 8
  %34 = sub nsw i32 2048, %28
  %35 = ashr i32 %34, 5
  %36 = add i32 %35, %27
  br label %42

37:                                               ; preds = %23
  %38 = sub i32 %25, %29
  %39 = sub i32 %31, %29
  store i32 %38, ptr %24, align 8
  store i32 %39, ptr %30, align 4
  %40 = lshr i32 %28, 5
  %41 = sub i32 %27, %40
  br label %42

42:                                               ; preds = %37, %33
  %.sink = phi i32 [ %41, %37 ], [ %36, %33 ]
  %.0 = phi i32 [ 1, %37 ], [ 0, %33 ]
  %43 = and i32 %27, -65536
  %44 = and i32 %.sink, 65535
  %45 = or disjoint i32 %44, %43
  %46 = load ptr, ptr %1, align 8
  store i32 %45, ptr %46, align 1
  %47 = load i32, ptr %24, align 8
  %48 = icmp ult i32 %47, 16777216
  br i1 %48, label %49, label %59

49:                                               ; preds = %42
  %50 = load ptr, ptr %0, align 8
  store ptr %50, ptr %1, align 8
  %51 = load i8, ptr %50, align 1
  %52 = zext i8 %51 to i32
  %53 = load i32, ptr %30, align 4
  %54 = shl i32 %53, 8
  %55 = or disjoint i32 %54, %52
  %56 = getelementptr inbounds i8, ptr %50, i64 1
  store ptr %56, ptr %1, align 8
  %57 = shl nuw i32 %47, 8
  store i32 %55, ptr %30, align 4
  store i32 %57, ptr %24, align 8
  %58 = load ptr, ptr %1, align 8
  store ptr %58, ptr %0, align 8
  br label %59

59:                                               ; preds = %42, %49, %4, %7, %10, %16, %18
  %.085 = phi i32 [ -1, %18 ], [ -1, %16 ], [ -1, %10 ], [ -1, %7 ], [ -1, %4 ], [ %.0, %49 ], [ %.0, %42 ]
  ret i32 %.085
}